Certificate:
    Data:
        Version: 3 (0x2)
        Serial Number: 10034310955789047398 (0x8b4108a6759dd666)
    Signature Algorithm: sha1WithRSAEncryption
        Issuer: C=cn, ST=gd, O=cx, OU=cxjr, CN=cx
        Validity
            Not Before: Aug 18 02:37:10 2014 GMT
            Not After : Aug 18 02:37:10 2015 GMT
        Subject: C=cn, ST=gd, O=cx, OU=cxjr, CN=cx/emailAddress=liaowendeng@revenco.com
        Subject Public Key Info:
            Public Key Algorithm: rsaEncryption
                Public-Key: (1024 bit)
                Modulus:
                    00:a8:89:02:56:76:83:3b:15:a1:03:0d:df:9b:a9:
                    81:4d:a2:b0:ae:d7:cd:d1:6d:3e:f2:ea:1e:24:0f:
                    e7:fa:9a:01:9c:37:5f:49:08:75:d4:a9:5c:bc:4b:
                    08:05:92:79:10:6d:59:44:d2:0c:2e:19:8a:54:70:
                    b3:b1:fd:db:ac:67:36:24:ed:3c:fa:18:a5:8b:0c:
                    36:f4:83:0e:cd:13:5e:97:b1:d3:40:95:6a:0a:f5:
                    78:6a:9e:ad:58:5b:91:15:3e:d7:37:58:f0:dc:7e:
                    c2:9c:ac:9d:23:ee:5c:6f:c1:b3:c8:d7:c0:ec:5e:
                    91:d1:cc:43:15:a4:0e:07:71
                Exponent: 65537 (0x10001)
        X509v3 extensions:
            X509v3 Basic Constraints: 
                CA:FALSE
            Netscape Comment: 
                OpenSSL Generated Certificate
            X509v3 Subject Key Identifier: 
                85:9C:23:36:9C:6C:F2:52:3E:37:5B:F9:EC:8E:C6:94:B8:2E:7D:27
            X509v3 Authority Key Identifier: 
                keyid:9D:5A:F6:FF:4F:1E:1D:AE:14:9B:B2:B3:E9:AA:46:2A:14:BB:28:46

    Signature Algorithm: sha1WithRSAEncryption
         1b:e9:10:73:12:19:b2:eb:ab:27:a4:01:e5:e2:b0:93:1c:8d:
         a0:0b:48:00:dc:8e:ed:84:71:8e:0a:af:8d:79:2c:6c:e7:ce:
         be:ab:09:51:38:ce:e2:d8:f2:01:b9:1d:06:99:0c:a4:b4:3e:
         f8:dd:19:12:ab:cc:ae:2b:62:ff:42:99:88:4c:cd:18:9c:53:
         2b:b0:06:d5:79:ac:31:b5:ef:c0:a6:5a:fa:2d:ec:0e:82:60:
         e2:76:fc:89:fe:a0:21:bf:1e:a6:97:08:a8:15:70:62:42:15:
         24:e7:5e:db:ca:b4:a6:c3:39:44:d5:6f:e6:d4:c1:41:fe:98:
         b8:91
-----BEGIN CERTIFICATE-----
MIICpzCCAhCgAwIBAgIJAItBCKZ1ndZmMA0GCSqGSIb3DQEBBQUAMEMxCzAJBgNV
BAYTAmNuMQswCQYDVQQIDAJnZDELMAkGA1UECgwCY3gxDTALBgNVBAsMBGN4anIx
CzAJBgNVBAMMAmN4MB4XDTE0MDgxODAyMzcxMFoXDTE1MDgxODAyMzcxMFowazEL
MAkGA1UEBhMCY24xCzAJBgNVBAgMAmdkMQswCQYDVQQKDAJjeDENMAsGA1UECwwE
Y3hqcjELMAkGA1UEAwwCY3gxJjAkBgkqhkiG9w0BCQEWF2xpYW93ZW5kZW5nQHJl
dmVuY28uY29tMIGfMA0GCSqGSIb3DQEBAQUAA4GNADCBiQKBgQCoiQJWdoM7FaED
Dd+bqYFNorCu183RbT7y6h4kD+f6mgGcN19JCHXUqVy8SwgFknkQbVlE0gwuGYpU
cLOx/dusZzYk7Tz6GKWLDDb0gw7NE16XsdNAlWoK9Xhqnq1YW5EVPtc3WPDcfsKc
rJ0j7lxvwbPI18DsXpHRzEMVpA4HcQIDAQABo3sweTAJBgNVHRMEAjAAMCwGCWCG
SAGG+EIBDQQfFh1PcGVuU1NMIEdlbmVyYXRlZCBDZXJ0aWZpY2F0ZTAdBgNVHQ4E
FgQUhZwjNpxs8lI+N1v57I7GlLgufScwHwYDVR0jBBgwFoAUnVr2/08eHa4Um7Kz
6apGKhS7KEYwDQYJKoZIhvcNAQEFBQADgYEAG+kQcxIZsuurJ6QB5eKwkxyNoAtI
ANyO7YRxjgqvjXksbOfOvqsJUTjO4tjyAbkdBpkMpLQ++N0ZEqvMriti/0KZiEzN
GJxTK7AG1XmsMbXvwKZa+i3sDoJg4nb8if6gIb8eppcIqBVwYkIVJOde28q0psM5
RNVv5tTBQf6YuJE=
-----END CERTIFICATE-----
